target datalayout = "e-m:e-p270:32:32-p271:32:32-p272:64:64-i64:64-i128:128-f80:128-n8:16:32:64-S128"
target triple = "x86_64-pc-linux-gnu"

%struct.quicklist = type { ptr, ptr, i64, i64, i64, [0 x %struct.quicklistBookmark] }
%struct.quicklistBookmark = type { ptr, ptr }
%struct.quicklistNode = type { ptr, ptr, ptr, i64, i32 }

; Function Attrs: nounwind uwtable
define dso_local void @_quicklistBookmarkDelete(ptr noundef %0, ptr noundef %1) #0 {
  %3 = alloca ptr, align 8
  %4 = alloca ptr, align 8
  %5 = alloca i32, align 4
  store ptr %0, ptr %3, align 8, !tbaa !9
  store ptr %1, ptr %4, align 8, !tbaa !36
  call void @llvm.lifetime.start.p0(i64 4, ptr %5) #10
  %6 = load ptr, ptr %4, align 8, !tbaa !36
  %7 = load ptr, ptr %3, align 8, !tbaa !9
  %8 = getelementptr inbounds nuw %struct.quicklist, ptr %7, i32 0, i32 5
  %9 = getelementptr inbounds [0 x %struct.quicklistBookmark], ptr %8, i64 0, i64 0
  %10 = ptrtoint ptr %6 to i64
  %11 = ptrtoint ptr %9 to i64
  %12 = sub i64 %10, %11
  %13 = sdiv exact i64 %12, 16
  %14 = trunc i64 %13 to i32
  store i32 %14, ptr %5, align 4, !tbaa !14
  %15 = load ptr, ptr %4, align 8, !tbaa !36
  %16 = getelementptr inbounds nuw %struct.quicklistBookmark, ptr %15, i32 0, i32 1
  %17 = load ptr, ptr %16, align 8, !tbaa !24
  call void @zfree(ptr noundef %17)
  %18 = load ptr, ptr %3, align 8, !tbaa !9
  %19 = getelementptr inbounds nuw %struct.quicklist, ptr %18, i32 0, i32 4
  %20 = load i64, ptr %19, align 8
  %21 = lshr i64 %20, 32
  %22 = and i64 %21, 15
  %23 = trunc i64 %22 to i32
  %24 = add i32 %23, -1
  %25 = zext i32 %24 to i64
  %26 = load i64, ptr %19, align 8
  %27 = and i64 %25, 15
  %28 = shl i64 %27, 32
  %29 = and i64 %26, -64424509441
  %30 = or i64 %29, %28
  store i64 %30, ptr %19, align 8
  %31 = load ptr, ptr %4, align 8, !tbaa !36
  %32 = load ptr, ptr %4, align 8, !tbaa !36
  %33 = getelementptr inbounds %struct.quicklistBookmark, ptr %32, i64 1
  %34 = load ptr, ptr %3, align 8, !tbaa !9
  %35 = getelementptr inbounds nuw %struct.quicklist, ptr %34, i32 0, i32 4
  %36 = load i64, ptr %35, align 8
  %37 = lshr i64 %36, 32
  %38 = and i64 %37, 15
  %39 = trunc i64 %38 to i32
  %40 = load i32, ptr %5, align 4, !tbaa !14
  %41 = sub nsw i32 %39, %40
  %42 = sext i32 %41 to i64
  %43 = mul i64 %42, 16
  call void @llvm.memmove.p0.p0.i64(ptr align 8 %31, ptr align 8 %33, i64 %43, i1 false)
  call void @llvm.lifetime.end.p0(i64 4, ptr %5) #10
  ret void
}

; Function Attrs: nounwind uwtable
define dso_local ptr @_quicklistBookmarkFindByNode(ptr noundef %0, ptr noundef %1) #0 {
  %3 = alloca ptr, align 8
  %4 = alloca ptr, align 8
  %5 = alloca ptr, align 8
  %6 = alloca i32, align 4
  %7 = alloca i32, align 4
  store ptr %0, ptr %4, align 8, !tbaa !9
  store ptr %1, ptr %5, align 8, !tbaa !12
  call void @llvm.lifetime.start.p0(i64 4, ptr %6) #10
  store i32 0, ptr %6, align 4, !tbaa !14
  br label %8

8:                                                ; preds = %34, %2
  %9 = load i32, ptr %6, align 4, !tbaa !14
  %10 = load ptr, ptr %4, align 8, !tbaa !9
  %11 = getelementptr inbounds nuw %struct.quicklist, ptr %10, i32 0, i32 4
  %12 = load i64, ptr %11, align 8
  %13 = lshr i64 %12, 32
  %14 = and i64 %13, 15
  %15 = trunc i64 %14 to i32
  %16 = icmp ult i32 %9, %15
  br i1 %16, label %17, label %37

17:                                               ; preds = %8
  %18 = load ptr, ptr %4, align 8, !tbaa !9
  %19 = getelementptr inbounds nuw %struct.quicklist, ptr %18, i32 0, i32 5
  %20 = load i32, ptr %6, align 4, !tbaa !14
  %21 = zext i32 %20 to i64
  %22 = getelementptr inbounds nuw [0 x %struct.quicklistBookmark], ptr %19, i64 0, i64 %21
  %23 = getelementptr inbounds nuw %struct.quicklistBookmark, ptr %22, i32 0, i32 0
  %24 = load ptr, ptr %23, align 8, !tbaa !38
  %25 = load ptr, ptr %5, align 8, !tbaa !12
  %26 = icmp eq ptr %24, %25
  br i1 %26, label %27, label %33

27:                                               ; preds = %17
  %28 = load ptr, ptr %4, align 8, !tbaa !9
  %29 = getelementptr inbounds nuw %struct.quicklist, ptr %28, i32 0, i32 5
  %30 = load i32, ptr %6, align 4, !tbaa !14
  %31 = zext i32 %30 to i64
  %32 = getelementptr inbounds nuw [0 x %struct.quicklistBookmark], ptr %29, i64 0, i64 %31
  store ptr %32, ptr %3, align 8
  store i32 1, ptr %7, align 4
  br label %38

33:                                               ; preds = %17
  br label %34

34:                                               ; preds = %33
  %35 = load i32, ptr %6, align 4, !tbaa !14
  %36 = add i32 %35, 1
  store i32 %36, ptr %6, align 4, !tbaa !14
  br label %8, !llvm.loop !39

37:                                               ; preds = %8
  store ptr null, ptr %3, align 8
  store i32 1, ptr %7, align 4
  br label %38

38:                                               ; preds = %37, %27
  call void @llvm.lifetime.end.p0(i64 4, ptr %6) #10
  %39 = load ptr, ptr %3, align 8
  ret ptr %39
}

; Function Attrs: nounwind uwtable
define dso_local void @__quicklistDelNode(ptr noundef %0, ptr noundef %1) #0 {
  %3 = alloca ptr, align 8
  %4 = alloca ptr, align 8
  %5 = alloca ptr, align 8
  store ptr %0, ptr %3, align 8, !tbaa !9
  store ptr %1, ptr %4, align 8, !tbaa !12
  call void @llvm.lifetime.start.p0(i64 8, ptr %5) #10
  %6 = load ptr, ptr %3, align 8, !tbaa !9
  %7 = load ptr, ptr %4, align 8, !tbaa !12
  %8 = call ptr @_quicklistBookmarkFindByNode(ptr noundef %6, ptr noundef %7)
  store ptr %8, ptr %5, align 8, !tbaa !36
  %9 = load ptr, ptr %5, align 8, !tbaa !36
  %10 = icmp ne ptr %9, null
  br i1 %10, label %11, label %25

11:                                               ; preds = %2
  %12 = load ptr, ptr %4, align 8, !tbaa !12
  %13 = getelementptr inbounds nuw %struct.quicklistNode, ptr %12, i32 0, i32 1
  %14 = load ptr, ptr %13, align 8, !tbaa !21
  %15 = load ptr, ptr %5, align 8, !tbaa !36
  %16 = getelementptr inbounds nuw %struct.quicklistBookmark, ptr %15, i32 0, i32 0
  store ptr %14, ptr %16, align 8, !tbaa !38
  %17 = load ptr, ptr %5, align 8, !tbaa !36
  %18 = getelementptr inbounds nuw %struct.quicklistBookmark, ptr %17, i32 0, i32 0
  %19 = load ptr, ptr %18, align 8, !tbaa !38
  %20 = icmp ne ptr %19, null
  br i1 %20, label %24, label %21

21:                                               ; preds = %11
  %22 = load ptr, ptr %3, align 8, !tbaa !9
  %23 = load ptr, ptr %5, align 8, !tbaa !36
  call void @_quicklistBookmarkDelete(ptr noundef %22, ptr noundef %23)
  br label %24

24:                                               ; preds = %21, %11
  br label %25

25:                                               ; preds = %24, %2
  %26 = load ptr, ptr %4, align 8, !tbaa !12
  %27 = getelementptr inbounds nuw %struct.quicklistNode, ptr %26, i32 0, i32 1
  %28 = load ptr, ptr %27, align 8, !tbaa !21
  %29 = icmp ne ptr %28, null
  br i1 %29, label %30, label %38

30:                                               ; preds = %25
  %31 = load ptr, ptr %4, align 8, !tbaa !12
  %32 = getelementptr inbounds nuw %struct.quicklistNode, ptr %31, i32 0, i32 0
  %33 = load ptr, ptr %32, align 8, !tbaa !20
  %34 = load ptr, ptr %4, align 8, !tbaa !12
  %35 = getelementptr inbounds nuw %struct.quicklistNode, ptr %34, i32 0, i32 1
  %36 = load ptr, ptr %35, align 8, !tbaa !21
  %37 = getelementptr inbounds nuw %struct.quicklistNode, ptr %36, i32 0, i32 0
  store ptr %33, ptr %37, align 8, !tbaa !20
  br label %38

38:                                               ; preds = %30, %25
  %39 = load ptr, ptr %4, align 8, !tbaa !12
  %40 = getelementptr inbounds nuw %struct.quicklistNode, ptr %39, i32 0, i32 0
  %41 = load ptr, ptr %40, align 8, !tbaa !20
  %42 = icmp ne ptr %41, null
  br i1 %42, label %43, label %51

43:                                               ; preds = %38
  %44 = load ptr, ptr %4, align 8, !tbaa !12
  %45 = getelementptr inbounds nuw %struct.quicklistNode, ptr %44, i32 0, i32 1
  %46 = load ptr, ptr %45, align 8, !tbaa !21
  %47 = load ptr, ptr %4, align 8, !tbaa !12
  %48 = getelementptr inbounds nuw %struct.quicklistNode, ptr %47, i32 0, i32 0
  %49 = load ptr, ptr %48, align 8, !tbaa !20
  %50 = getelementptr inbounds nuw %struct.quicklistNode, ptr %49, i32 0, i32 1
  store ptr %46, ptr %50, align 8, !tbaa !21
  br label %51

51:                                               ; preds = %43, %38
  %52 = load ptr, ptr %4, align 8, !tbaa !12
  %53 = load ptr, ptr %3, align 8, !tbaa !9
  %54 = getelementptr inbounds nuw %struct.quicklist, ptr %53, i32 0, i32 1
  %55 = load ptr, ptr %54, align 8, !tbaa !12
  %56 = icmp eq ptr %52, %55
  br i1 %56, label %57, label %63

57:                                               ; preds = %51
  %58 = load ptr, ptr %4, align 8, !tbaa !12
  %59 = getelementptr inbounds nuw %struct.quicklistNode, ptr %58, i32 0, i32 0
  %60 = load ptr, ptr %59, align 8, !tbaa !20
  %61 = load ptr, ptr %3, align 8, !tbaa !9
  %62 = getelementptr inbounds nuw %struct.quicklist, ptr %61, i32 0, i32 1
  store ptr %60, ptr %62, align 8, !tbaa !12
  br label %63

63:                                               ; preds = %57, %51
  %64 = load ptr, ptr %4, align 8, !tbaa !12
  %65 = load ptr, ptr %3, align 8, !tbaa !9
  %66 = getelementptr inbounds nuw %struct.quicklist, ptr %65, i32 0, i32 0
  %67 = load ptr, ptr %66, align 8, !tbaa !12
  %68 = icmp eq ptr %64, %67
  br i1 %68, label %69, label %75

69:                                               ; preds = %63
  %70 = load ptr, ptr %4, align 8, !tbaa !12
  %71 = getelementptr inbounds nuw %struct.quicklistNode, ptr %70, i32 0, i32 1
  %72 = load ptr, ptr %71, align 8, !tbaa !21
  %73 = load ptr, ptr %3, align 8, !tbaa !9
  %74 = getelementptr inbounds nuw %struct.quicklist, ptr %73, i32 0, i32 0
  store ptr %72, ptr %74, align 8, !tbaa !12
  br label %75

75:                                               ; preds = %69, %63
  %76 = load ptr, ptr %3, align 8, !tbaa !9
  %77 = getelementptr inbounds nuw %struct.quicklist, ptr %76, i32 0, i32 3
  %78 = load i64, ptr %77, align 8, !tbaa !5
  %79 = add i64 %78, -1
  store i64 %79, ptr %77, align 8, !tbaa !5
  %80 = load ptr, ptr %4, align 8, !tbaa !12
  %81 = getelementptr inbounds nuw %struct.quicklistNode, ptr %80, i32 0, i32 4
  %82 = load i32, ptr %81, align 8
  %83 = and i32 %82, 65535
  %84 = zext i32 %83 to i64
  %85 = load ptr, ptr %3, align 8, !tbaa !9
  %86 = getelementptr inbounds nuw %struct.quicklist, ptr %85, i32 0, i32 2
  %87 = load i64, ptr %86, align 8, !tbaa !5
  %88 = sub i64 %87, %84
  store i64 %88, ptr %86, align 8, !tbaa !5
  %89 = load ptr, ptr %3, align 8, !tbaa !9
  call void @__quicklistCompress(ptr noundef %89, ptr noundef null)
  %90 = load ptr, ptr %4, align 8, !tbaa !12
  %91 = getelementptr inbounds nuw %struct.quicklistNode, ptr %90, i32 0, i32 2
  %92 = load ptr, ptr %91, align 8, !tbaa !16
  call void @zfree(ptr noundef %92)
  %93 = load ptr, ptr %4, align 8, !tbaa !12
  call void @zfree(ptr noundef %93)
  call void @llvm.lifetime.end.p0(i64 8, ptr %5) #10
  ret void
}