; Function Attrs: nounwind uwtable
define dso_local void @__quicklistDelNode(ptr noundef %0, ptr noundef %1) local_unnamed_addr #1 {
  %3 = getelementptr inbounds nuw i8, ptr %0, i64 40
  %4 = getelementptr inbounds nuw i8, ptr %0, i64 32
  %5 = load i64, ptr %4, align 8
  %6 = and i64 %5, 64424509440
  %.not.i = icmp eq i64 %6, 0
  br i1 %.not.i, label %_quicklistBookmarkFindByNode.exit.thread, label %.lr.ph.preheader.i

.lr.ph.preheader.i:                               ; preds = %2
  %7 = lshr i64 %5, 32
  %wide.trip.count.i = and i64 %7, 15
  br label %.lr.ph.i

8:                                                ; preds = %.lr.ph.i
  %indvars.iv.next.i = add nuw nsw i64 %indvars.iv.i, 1
  %exitcond.not.i = icmp eq i64 %indvars.iv.next.i, %wide.trip.count.i
  br i1 %exitcond.not.i, label %_quicklistBookmarkFindByNode.exit.thread, label %.lr.ph.i, !llvm.loop !30

.lr.ph.i:                                         ; preds = %8, %.lr.ph.preheader.i
  %indvars.iv.i = phi i64 [ 0, %.lr.ph.preheader.i ], [ %indvars.iv.next.i, %8 ]
  %9 = getelementptr inbounds nuw [0 x %struct.quicklistBookmark], ptr %3, i64 0, i64 %indvars.iv.i
  %10 = load ptr, ptr %9, align 8, !tbaa !31
  %11 = icmp eq ptr %10, %1
  br i1 %11, label %_quicklistBookmarkFindByNode.exit, label %8

_quicklistBookmarkFindByNode.exit:                ; preds = %.lr.ph.i
  %12 = getelementptr inbounds nuw i8, ptr %1, i64 8
  %13 = load ptr, ptr %12, align 8, !tbaa !17
  store ptr %13, ptr %9, align 8, !tbaa !31
  %.not31 = icmp eq ptr %13, null
  br i1 %.not31, label %14, label %_quicklistBookmarkFindByNode.exit.thread

14:                                               ; preds = %_quicklistBookmarkFindByNode.exit
  %15 = ptrtoint ptr %9 to i64
  %16 = ptrtoint ptr %3 to i64
  %.neg.i = sub i64 %16, %15
  %17 = getelementptr inbounds nuw i8, ptr %9, i64 8
  %18 = load ptr, ptr %17, align 8, !tbaa !20
  tail call void @zfree(ptr noundef %18) #23
  %19 = load i64, ptr %4, align 8
  %20 = add i64 %19, 64424509440
  %21 = and i64 %20, 64424509440
  %22 = and i64 %19, -64424509441
  %23 = or disjoint i64 %21, %22
  store i64 %23, ptr %4, align 8
  %24 = getelementptr inbounds nuw i8, ptr %9, i64 16
  %.neg7.i = shl i64 %.neg.i, 28
  %sext.i = add i64 %21, %.neg7.i
  %25 = ashr exact i64 %sext.i, 28
  %26 = and i64 %25, -16
  tail call void @llvm.memmove.p0.p0.i64(ptr nonnull align 8 %9, ptr nonnull align 8 %24, i64 %26, i1 false)
  br label %_quicklistBookmarkFindByNode.exit.thread

_quicklistBookmarkFindByNode.exit.thread:         ; preds = %8, %2, %_quicklistBookmarkFindByNode.exit, %14
  %27 = getelementptr inbounds nuw i8, ptr %1, i64 8
  %28 = load ptr, ptr %27, align 8, !tbaa !17
  %.not32 = icmp eq ptr %28, null
  %.pre = load ptr, ptr %1, align 8, !tbaa !23
  br i1 %.not32, label %30, label %29

29:                                               ; preds = %_quicklistBookmarkFindByNode.exit.thread
  store ptr %.pre, ptr %28, align 8, !tbaa !23
  br label %30

30:                                               ; preds = %29, %_quicklistBookmarkFindByNode.exit.thread
  %.not33 = icmp eq ptr %.pre, null
  br i1 %.not33, label %33, label %31

31:                                               ; preds = %30
  %32 = getelementptr inbounds nuw i8, ptr %.pre, i64 8
  store ptr %28, ptr %32, align 8, !tbaa !17
  br label %33

33:                                               ; preds = %31, %30
  %34 = getelementptr inbounds nuw i8, ptr %0, i64 8
  %35 = load ptr, ptr %34, align 8, !tbaa !16
  %36 = icmp eq ptr %1, %35
  br i1 %36, label %37, label %38

37:                                               ; preds = %33
  store ptr %.pre, ptr %34, align 8, !tbaa !16
  br label %38

38:                                               ; preds = %37, %33
  %39 = load ptr, ptr %0, align 8, !tbaa !16
  %40 = icmp eq ptr %1, %39
  br i1 %40, label %41, label %43

41:                                               ; preds = %38
  %42 = load ptr, ptr %27, align 8, !tbaa !17
  store ptr %42, ptr %0, align 8, !tbaa !16
  br label %43

43:                                               ; preds = %41, %38
  %44 = getelementptr inbounds nuw i8, ptr %0, i64 24
  %45 = load i64, ptr %44, align 8, !tbaa !5
  %46 = add i64 %45, -1
  store i64 %46, ptr %44, align 8, !tbaa !5
  %47 = getelementptr inbounds nuw i8, ptr %1, i64 32
  %48 = load i32, ptr %47, align 8
  %49 = and i32 %48, 65535
  %50 = zext nneg i32 %49 to i64
  %51 = getelementptr inbounds nuw i8, ptr %0, i64 16
  %52 = load i64, ptr %51, align 8, !tbaa !5
  %53 = sub i64 %52, %50
  store i64 %53, ptr %51, align 8, !tbaa !5
  tail call void @__quicklistCompress(ptr noundef nonnull %0, ptr noundef null)
  %54 = getelementptr inbounds nuw i8, ptr %1, i64 16
  %55 = load ptr, ptr %54, align 8, !tbaa !9
  tail call void @zfree(ptr noundef %55) #23
  tail call void @zfree(ptr noundef nonnull %1) #23
  ret void
}